target datalayout = "e-m:e-p270:32:32-p271:32:32-p272:64:64-i64:64-i128:128-f80:128-n8:16:32:64-S128"
target triple = "x86_64-pc-linux-gnu"

%struct.MPVEncContext = type { %struct.MpegEncContext, %struct.PutBitContext, i32, i32, ptr, i32, i32, i32, i32, i32, i32, i32, i32, ptr, ptr, %struct.FDCTDSPContext, %struct.MpegvideoEncDSPContext, %struct.PixblockDSPContext, %struct.MotionEstContext, i32, i32, ptr, ptr, ptr, ptr, ptr, ptr, [2 x [2 x [2 x ptr]]], [2 x ptr], [2 x [2 x ptr]], ptr, ptr, ptr, ptr, [3 x i64], i32, i32, i32, i32, i32, ptr, ptr, ptr, ptr, ptr, ptr, ptr, [12 x i32], ptr, ptr, ptr, ptr, ptr, ptr, ptr, ptr, [2 x i32], ptr, i32, i32, i32, i32, i32, i32, i32, i32, i32, i32, ptr, ptr, i32, i32, %struct.PutBitContext, %struct.PutBitContext, i32, i32, i32, i32, ptr, ptr, ptr, [2 x ptr], [2 x ptr], [2 x ptr], [2 x ptr], ptr, i32 }
%struct.MpegEncContext = type { ptr, i32, i32, i32, [12 x i32], i32, %struct.ScanTable, %struct.ScanTable, [64 x i8], [64 x i8], ptr, ptr, i32, i32, i32, i32, i32, i32, i32, i32, i32, i32, i32, i32, i32, i32, i32, i32, i32, i32, i32, i32, i64, i64, ptr, %struct.BufferPoolContext, i32, i32, %union.anon, i32, %struct.MPVWorkPicture, %struct.MPVWorkPicture, %struct.MPVWorkPicture, i32, [3 x i32], ptr, [3 x ptr], ptr, ptr, ptr, ptr, ptr, ptr, [3 x ptr], i32, ptr, ptr, ptr, ptr, %struct.ScratchpadContext, i32, i32, i32, i32, i32, i32, %struct.BlockDSPContext, %struct.H264ChromaContext, %struct.HpelDSPContext, %struct.IDCTDSPContext, %struct.QpelDSPContext, %struct.VideoDSPContext, %struct.H263DSPContext, ptr, [2 x [2 x ptr]], i32, i32, [2 x [4 x [2 x i32]]], [2 x [2 x i32]], [2 x [2 x [2 x i32]]], [2 x [64 x i16]], i32, i32, i32, i32, i32, [6 x i32], [6 x i32], [3 x ptr], ptr, [64 x i16], [64 x i16], [64 x i16], [64 x i16], i32, i32, %struct.GetBitContext, i32, i32, i32, i32, i32, i32, i32, i32, i32, i32, i32, i32, i32, i32, i32, i64, i64, i16, i16, i16, i16, i32, i32, i32, i32, i32, i32, i32, i32, i32, [3 x i32], i32, i32, i32, i32, i32, i32, %struct.GetBitContext, i32, [2 x [2 x i32]], i32, i32, i32, i32, i32, i32, i32, i32, i32, i32, i32, i32, i32, i32, [2 x i32], i32, i32, ptr, ptr, ptr, ptr, ptr, i32, i32, %struct.ERContext }
%struct.ScanTable = type { ptr, [64 x i8], [64 x i8] }
%struct.BufferPoolContext = type { ptr, ptr, ptr, ptr, ptr, i32, i32, i32 }
%union.anon = type { [32 x ptr] }
%struct.MPVWorkPicture = type { [3 x ptr], [3 x i64], ptr, ptr, [2 x ptr], ptr, ptr, [2 x ptr], i32 }
%struct.ScratchpadContext = type { ptr, ptr, %union.anon.0, i32 }
%union.anon.0 = type { ptr }
%struct.BlockDSPContext = type { ptr, ptr, [2 x ptr] }
%struct.H264ChromaContext = type { [4 x ptr], [4 x ptr] }
%struct.HpelDSPContext = type { [4 x [4 x ptr]], [4 x [4 x ptr]], [4 x [4 x ptr]], [4 x ptr] }
%struct.IDCTDSPContext = type { ptr, ptr, ptr, ptr, ptr, ptr, [64 x i8], i32, i32 }
%struct.QpelDSPContext = type { [2 x [16 x ptr]], [2 x [16 x ptr]], [2 x [16 x ptr]] }
%struct.VideoDSPContext = type { ptr, ptr }
%struct.H263DSPContext = type { ptr, ptr }
%struct.GetBitContext = type { ptr, ptr, i32, i32, i32 }
%struct.ERContext = type { ptr, ptr, i32, ptr, i32, i32, i32, i64, i64, i32, i32, ptr, ptr, [3 x ptr], ptr, ptr, [2 x [4 x [2 x i32]]], %struct.ERPicture, %struct.ERPicture, %struct.ERPicture, [2 x ptr], [2 x ptr], i16, i16, i32, i32, ptr, ptr }
%struct.ERPicture = type { ptr, ptr, ptr, [2 x ptr], [2 x ptr], ptr, i32 }
%struct.FDCTDSPContext = type { ptr, ptr }
%struct.MpegvideoEncDSPContext = type { ptr, ptr, ptr, ptr, [4 x ptr], ptr }
%struct.PixblockDSPContext = type { ptr, ptr, ptr, ptr }
%struct.MotionEstContext = type { ptr, i32, i32, [4 x [2 x i32]], [4 x [2 x i32]], ptr, ptr, i32, i32, i32, i32, i32, i32, i32, i32, i32, i32, i32, i32, i32, i32, i32, i32, [4 x [4 x ptr]], [4 x [4 x ptr]], i32, i32, i64, i64, i32, [6 x ptr], [6 x ptr], [6 x ptr], [6 x ptr], [2 x [4 x ptr]], ptr, ptr, ptr, ptr, ptr, ptr, ptr, ptr, [64 x i32], [64 x i32] }
%struct.PutBitContext = type { i32, i32, ptr, ptr, ptr }

; Function Attrs: nounwind uwtable
define internal i32 @bit8x8_c(ptr noundef %0, ptr noundef %1, ptr noundef %2, i64 noundef %3, i32 noundef %4) #2 {
  %6 = alloca ptr, align 8
  %7 = alloca ptr, align 8
  %8 = alloca ptr, align 8
  %9 = alloca i64, align 8
  %10 = alloca i32, align 4
  %11 = alloca ptr, align 8
  %12 = alloca [64 x i16], align 16
  %13 = alloca ptr, align 8
  %14 = alloca i32, align 4
  %15 = alloca i32, align 4
  %16 = alloca i32, align 4
  %17 = alloca i32, align 4
  %18 = alloca i32, align 4
  %19 = alloca i32, align 4
  %20 = alloca i32, align 4
  %21 = alloca ptr, align 8
  %22 = alloca ptr, align 8
  %23 = alloca i32, align 4
  store ptr %0, ptr %6, align 8, !tbaa !22
  store ptr %1, ptr %7, align 8, !tbaa !24
  store ptr %2, ptr %8, align 8, !tbaa !24
  store i64 %3, ptr %9, align 8, !tbaa !26
  store i32 %4, ptr %10, align 4, !tbaa !11
  call void @llvm.lifetime.start.p0(i64 8, ptr %11) #9
  %24 = load ptr, ptr %6, align 8, !tbaa !22
  %25 = getelementptr inbounds nuw %struct.MPVEncContext, ptr %24, i32 0, i32 0
  %26 = getelementptr inbounds nuw %struct.MpegEncContext, ptr %25, i32 0, i32 7
  %27 = getelementptr inbounds nuw %struct.ScanTable, ptr %26, i32 0, i32 1
  %28 = getelementptr inbounds [64 x i8], ptr %27, i64 0, i64 0
  store ptr %28, ptr %11, align 8, !tbaa !24
  call void @llvm.lifetime.start.p0(i64 128, ptr %12) #9
  call void @llvm.lifetime.start.p0(i64 8, ptr %13) #9
  %29 = getelementptr inbounds [64 x i16], ptr %12, i64 0, i64 0
  store ptr %29, ptr %13, align 8, !tbaa !32
  call void @llvm.lifetime.start.p0(i64 4, ptr %14) #9
  call void @llvm.lifetime.start.p0(i64 4, ptr %15) #9
  call void @llvm.lifetime.start.p0(i64 4, ptr %16) #9
  call void @llvm.lifetime.start.p0(i64 4, ptr %17) #9
  call void @llvm.lifetime.start.p0(i64 4, ptr %18) #9
  call void @llvm.lifetime.start.p0(i64 4, ptr %19) #9
  call void @llvm.lifetime.start.p0(i64 4, ptr %20) #9
  %30 = load ptr, ptr %6, align 8, !tbaa !22
  %31 = getelementptr inbounds nuw %struct.MPVEncContext, ptr %30, i32 0, i32 39
  %32 = load i32, ptr %31, align 8, !tbaa !92
  store i32 %32, ptr %20, align 4, !tbaa !11
  call void @llvm.lifetime.start.p0(i64 8, ptr %21) #9
  call void @llvm.lifetime.start.p0(i64 8, ptr %22) #9
  %33 = load ptr, ptr %6, align 8, !tbaa !22
  %34 = getelementptr inbounds nuw %struct.MPVEncContext, ptr %33, i32 0, i32 17
  %35 = getelementptr inbounds nuw %struct.PixblockDSPContext, ptr %34, i32 0, i32 3
  %36 = load ptr, ptr %35, align 8, !tbaa !49
  %37 = load ptr, ptr %13, align 8, !tbaa !32
  %38 = load ptr, ptr %7, align 8, !tbaa !24
  %39 = load ptr, ptr %8, align 8, !tbaa !24
  %40 = load i64, ptr %9, align 8, !tbaa !26
  call void %36(ptr noundef %37, ptr noundef %38, ptr noundef %39, i64 noundef %40)
  %41 = load ptr, ptr %6, align 8, !tbaa !22
  %42 = getelementptr inbounds nuw %struct.MPVEncContext, ptr %41, i32 0, i32 80
  %43 = load ptr, ptr %42, align 8, !tbaa !88
  %44 = load ptr, ptr %6, align 8, !tbaa !22
  %45 = load ptr, ptr %13, align 8, !tbaa !32
  %46 = load ptr, ptr %6, align 8, !tbaa !22
  %47 = getelementptr inbounds nuw %struct.MPVEncContext, ptr %46, i32 0, i32 0
  %48 = getelementptr inbounds nuw %struct.MpegEncContext, ptr %47, i32 0, i32 60
  %49 = load i32, ptr %48, align 8, !tbaa !89
  %50 = call i32 %43(ptr noundef %44, ptr noundef %45, i32 noundef 0, i32 noundef %49, ptr noundef %14)
  store i32 %50, ptr %15, align 4, !tbaa !11
  %51 = load ptr, ptr %6, align 8, !tbaa !22
  %52 = getelementptr inbounds nuw %struct.MPVEncContext, ptr %51, i32 0, i32 0
  %53 = getelementptr inbounds nuw %struct.MpegEncContext, ptr %52, i32 0, i32 4
  %54 = getelementptr inbounds [12 x i32], ptr %53, i64 0, i64 0
  store i32 %50, ptr %54, align 4, !tbaa !11
  store i32 0, ptr %17, align 4, !tbaa !11
  %55 = load ptr, ptr %6, align 8, !tbaa !22
  %56 = getelementptr inbounds nuw %struct.MPVEncContext, ptr %55, i32 0, i32 0
  %57 = getelementptr inbounds nuw %struct.MpegEncContext, ptr %56, i32 0, i32 85
  %58 = load i32, ptr %57, align 8, !tbaa !87
  %59 = icmp ne i32 %58, 0
  br i1 %59, label %60, label %81

60:                                               ; preds = %5
  store i32 1, ptr %19, align 4, !tbaa !11
  %61 = load ptr, ptr %6, align 8, !tbaa !22
  %62 = getelementptr inbounds nuw %struct.MPVEncContext, ptr %61, i32 0, i32 40
  %63 = load ptr, ptr %62, align 8, !tbaa !94
  store ptr %63, ptr %21, align 8, !tbaa !24
  %64 = load ptr, ptr %6, align 8, !tbaa !22
  %65 = getelementptr inbounds nuw %struct.MPVEncContext, ptr %64, i32 0, i32 41
  %66 = load ptr, ptr %65, align 8, !tbaa !95
  store ptr %66, ptr %22, align 8, !tbaa !24
  %67 = load ptr, ptr %6, align 8, !tbaa !22
  %68 = getelementptr inbounds nuw %struct.MPVEncContext, ptr %67, i32 0, i32 46
  %69 = load ptr, ptr %68, align 8, !tbaa !96
  %70 = load ptr, ptr %13, align 8, !tbaa !32
  %71 = getelementptr inbounds i16, ptr %70, i64 0
  %72 = load i16, ptr %71, align 2, !tbaa !34
  %73 = sext i16 %72 to i32
  %74 = add nsw i32 %73, 256
  %75 = sext i32 %74 to i64
  %76 = getelementptr inbounds i8, ptr %69, i64 %75
  %77 = load i8, ptr %76, align 1, !tbaa !36
  %78 = zext i8 %77 to i32
  %79 = load i32, ptr %17, align 4, !tbaa !11
  %80 = add nsw i32 %79, %78
  store i32 %80, ptr %17, align 4, !tbaa !11
  br label %88

81:                                               ; preds = %5
  store i32 0, ptr %19, align 4, !tbaa !11
  %82 = load ptr, ptr %6, align 8, !tbaa !22
  %83 = getelementptr inbounds nuw %struct.MPVEncContext, ptr %82, i32 0, i32 44
  %84 = load ptr, ptr %83, align 8, !tbaa !97
  store ptr %84, ptr %21, align 8, !tbaa !24
  %85 = load ptr, ptr %6, align 8, !tbaa !22
  %86 = getelementptr inbounds nuw %struct.MPVEncContext, ptr %85, i32 0, i32 45
  %87 = load ptr, ptr %86, align 8, !tbaa !98
  store ptr %87, ptr %22, align 8, !tbaa !24
  br label %88

88:                                               ; preds = %81, %60
  %89 = load i32, ptr %15, align 4, !tbaa !11
  %90 = load i32, ptr %19, align 4, !tbaa !11
  %91 = icmp sge i32 %89, %90
  br i1 %91, label %92, label %177

92:                                               ; preds = %88
  store i32 0, ptr %16, align 4, !tbaa !11
  %93 = load i32, ptr %19, align 4, !tbaa !11
  store i32 %93, ptr %14, align 4, !tbaa !11
  br label %94

94:                                               ; preds = %140, %92
  %95 = load i32, ptr %14, align 4, !tbaa !11
  %96 = load i32, ptr %15, align 4, !tbaa !11
  %97 = icmp slt i32 %95, %96
  br i1 %97, label %98, label %143

98:                                               ; preds = %94
  call void @llvm.lifetime.start.p0(i64 4, ptr %23) #9
  %99 = load ptr, ptr %11, align 8, !tbaa !24
  %100 = load i32, ptr %14, align 4, !tbaa !11
  %101 = sext i32 %100 to i64
  %102 = getelementptr inbounds i8, ptr %99, i64 %101
  %103 = load i8, ptr %102, align 1, !tbaa !36
  %104 = zext i8 %103 to i32
  store i32 %104, ptr %23, align 4, !tbaa !11
  %105 = load ptr, ptr %13, align 8, !tbaa !32
  %106 = load i32, ptr %23, align 4, !tbaa !11
  %107 = sext i32 %106 to i64
  %108 = getelementptr inbounds i16, ptr %105, i64 %107
  %109 = load i16, ptr %108, align 2, !tbaa !34
  %110 = sext i16 %109 to i32
  store i32 %110, ptr %18, align 4, !tbaa !11
  %111 = load i32, ptr %18, align 4, !tbaa !11
  %112 = icmp ne i32 %111, 0
  br i1 %112, label %113, label %136

113:                                              ; preds = %98
  %114 = load i32, ptr %18, align 4, !tbaa !11
  %115 = add nsw i32 %114, 64
  store i32 %115, ptr %18, align 4, !tbaa !11
  %116 = load i32, ptr %18, align 4, !tbaa !11
  %117 = and i32 %116, -128
  %118 = icmp eq i32 %117, 0
  br i1 %118, label %119, label %131

119:                                              ; preds = %113
  %120 = load ptr, ptr %21, align 8, !tbaa !24
  %121 = load i32, ptr %16, align 4, !tbaa !11
  %122 = mul nsw i32 %121, 128
  %123 = load i32, ptr %18, align 4, !tbaa !11
  %124 = add nsw i32 %122, %123
  %125 = sext i32 %124 to i64
  %126 = getelementptr inbounds i8, ptr %120, i64 %125
  %127 = load i8, ptr %126, align 1, !tbaa !36
  %128 = zext i8 %127 to i32
  %129 = load i32, ptr %17, align 4, !tbaa !11
  %130 = add nsw i32 %129, %128
  store i32 %130, ptr %17, align 4, !tbaa !11
  br label %135

131:                                              ; preds = %113
  %132 = load i32, ptr %20, align 4, !tbaa !11
  %133 = load i32, ptr %17, align 4, !tbaa !11
  %134 = add nsw i32 %133, %132
  store i32 %134, ptr %17, align 4, !tbaa !11
  br label %135

135:                                              ; preds = %131, %119
  store i32 0, ptr %16, align 4, !tbaa !11
  br label %139

136:                                              ; preds = %98
  %137 = load i32, ptr %16, align 4, !tbaa !11
  %138 = add nsw i32 %137, 1
  store i32 %138, ptr %16, align 4, !tbaa !11
  br label %139

139:                                              ; preds = %136, %135
  call void @llvm.lifetime.end.p0(i64 4, ptr %23) #9
  br label %140

140:                                              ; preds = %139
  %141 = load i32, ptr %14, align 4, !tbaa !11
  %142 = add nsw i32 %141, 1
  store i32 %142, ptr %14, align 4, !tbaa !11
  br label %94, !llvm.loop !102

143:                                              ; preds = %94
  %144 = load ptr, ptr %11, align 8, !tbaa !24
  %145 = load i32, ptr %15, align 4, !tbaa !11
  %146 = sext i32 %145 to i64
  %147 = getelementptr inbounds i8, ptr %144, i64 %146
  %148 = load i8, ptr %147, align 1, !tbaa !36
  %149 = zext i8 %148 to i32
  store i32 %149, ptr %14, align 4, !tbaa !11
  %150 = load ptr, ptr %13, align 8, !tbaa !32
  %151 = load i32, ptr %14, align 4, !tbaa !11
  %152 = sext i32 %151 to i64
  %153 = getelementptr inbounds i16, ptr %150, i64 %152
  %154 = load i16, ptr %153, align 2, !tbaa !34
  %155 = sext i16 %154 to i32
  %156 = add nsw i32 %155, 64
  store i32 %156, ptr %18, align 4, !tbaa !11
  %157 = load i32, ptr %18, align 4, !tbaa !11
  %158 = and i32 %157, -128
  %159 = icmp eq i32 %158, 0
  br i1 %159, label %160, label %172

160:                                              ; preds = %143
  %161 = load ptr, ptr %22, align 8, !tbaa !24
  %162 = load i32, ptr %16, align 4, !tbaa !11
  %163 = mul nsw i32 %162, 128
  %164 = load i32, ptr %18, align 4, !tbaa !11
  %165 = add nsw i32 %163, %164
  %166 = sext i32 %165 to i64
  %167 = getelementptr inbounds i8, ptr %161, i64 %166
  %168 = load i8, ptr %167, align 1, !tbaa !36
  %169 = zext i8 %168 to i32
  %170 = load i32, ptr %17, align 4, !tbaa !11
  %171 = add nsw i32 %170, %169
  store i32 %171, ptr %17, align 4, !tbaa !11
  br label %176

172:                                              ; preds = %143
  %173 = load i32, ptr %20, align 4, !tbaa !11
  %174 = load i32, ptr %17, align 4, !tbaa !11
  %175 = add nsw i32 %174, %173
  store i32 %175, ptr %17, align 4, !tbaa !11
  br label %176

176:                                              ; preds = %172, %160
  br label %177

177:                                              ; preds = %176, %88
  %178 = load i32, ptr %17, align 4, !tbaa !11
  call void @llvm.lifetime.end.p0(i64 8, ptr %22) #9
  call void @llvm.lifetime.end.p0(i64 8, ptr %21) #9
  call void @llvm.lifetime.end.p0(i64 4, ptr %20) #9
  call void @llvm.lifetime.end.p0(i64 4, ptr %19) #9
  call void @llvm.lifetime.end.p0(i64 4, ptr %18) #9
  call void @llvm.lifetime.end.p0(i64 4, ptr %17) #9
  call void @llvm.lifetime.end.p0(i64 4, ptr %16) #9
  call void @llvm.lifetime.end.p0(i64 4, ptr %15) #9
  call void @llvm.lifetime.end.p0(i64 4, ptr %14) #9
  call void @llvm.lifetime.end.p0(i64 8, ptr %13) #9
  call void @llvm.lifetime.end.p0(i64 128, ptr %12) #9
  call void @llvm.lifetime.end.p0(i64 8, ptr %11) #9
  ret i32 %178
}