; Function Attrs: nounwind uwtable
define internal i32 @bit8x8_c(ptr noundef %0, ptr noundef %1, ptr noundef %2, i64 noundef %3, i32 %4) #7 {
  %6 = alloca [64 x i16], align 16
  %7 = alloca i32, align 4
  %8 = getelementptr inbounds nuw i8, ptr %0, i64 216
  call void @llvm.lifetime.start.p0(i64 128, ptr nonnull %6) #12
  call void @llvm.lifetime.start.p0(i64 4, ptr nonnull %7) #12
  %9 = getelementptr inbounds nuw i8, ptr %0, i64 6544
  %10 = load i32, ptr %9, align 8, !tbaa !82
  %11 = getelementptr inbounds nuw i8, ptr %0, i64 5016
  %12 = load ptr, ptr %11, align 8, !tbaa !35
  call void %12(ptr noundef nonnull %6, ptr noundef %1, ptr noundef %2, i64 noundef %3) #12
  %13 = getelementptr inbounds nuw i8, ptr %0, i64 6896
  %14 = load ptr, ptr %13, align 8, !tbaa !78
  %15 = getelementptr inbounds nuw i8, ptr %0, i64 1472
  %16 = load i32, ptr %15, align 8, !tbaa !79
  %17 = call i32 %14(ptr noundef %0, ptr noundef nonnull %6, i32 noundef 0, i32 noundef %16, ptr noundef nonnull %7) #12
  %18 = getelementptr inbounds nuw i8, ptr %0, i64 20
  store i32 %17, ptr %18, align 4, !tbaa !29
  %19 = getelementptr inbounds nuw i8, ptr %0, i64 3360
  %20 = load i32, ptr %19, align 8, !tbaa !77
  %.not = icmp eq i32 %20, 0
  br i1 %.not, label %32, label %21

21:                                               ; preds = %5
  %22 = getelementptr inbounds nuw i8, ptr %0, i64 6552
  %23 = getelementptr inbounds nuw i8, ptr %0, i64 6560
  %24 = getelementptr inbounds nuw i8, ptr %0, i64 6600
  %25 = load ptr, ptr %24, align 8, !tbaa !85
  %26 = load i16, ptr %6, align 16, !tbaa !18
  %27 = sext i16 %26 to i64
  %28 = getelementptr i8, ptr %25, i64 %27
  %29 = getelementptr i8, ptr %28, i64 256
  %30 = load i8, ptr %29, align 1, !tbaa !20
  %31 = zext i8 %30 to i32
  br label %35

32:                                               ; preds = %5
  %33 = getelementptr inbounds nuw i8, ptr %0, i64 6584
  %34 = getelementptr inbounds nuw i8, ptr %0, i64 6592
  br label %35

35:                                               ; preds = %32, %21
  %.051 = phi i32 [ 1, %21 ], [ 0, %32 ]
  %.049 = phi i32 [ %31, %21 ], [ 0, %32 ]
  %.048.in = phi ptr [ %22, %21 ], [ %33, %32 ]
  %.047.in = phi ptr [ %23, %21 ], [ %34, %32 ]
  %.047 = load ptr, ptr %.047.in, align 8, !tbaa !86
  %.048 = load ptr, ptr %.048.in, align 8, !tbaa !86
  %.not55 = icmp slt i32 %17, %.051
  br i1 %.not55, label %78, label %.preheader

.preheader:                                       ; preds = %35
  store i32 %.051, ptr %7, align 4, !tbaa !29
  %36 = icmp samesign ult i32 %.051, %17
  br i1 %36, label %.lr.ph.preheader, label %.preheader.._crit_edge_crit_edge

.preheader.._crit_edge_crit_edge:                 ; preds = %.preheader
  %.pre = zext nneg i32 %17 to i64
  br label %._crit_edge

.lr.ph.preheader:                                 ; preds = %.preheader
  %37 = zext nneg i32 %.051 to i64
  %wide.trip.count = zext nneg i32 %17 to i64
  br label %.lr.ph

.lr.ph:                                           ; preds = %.lr.ph.preheader, %57
  %indvars.iv = phi i64 [ %37, %.lr.ph.preheader ], [ %indvars.iv.next, %57 ]
  %.059 = phi i32 [ 0, %.lr.ph.preheader ], [ %.1, %57 ]
  %.258 = phi i32 [ %.049, %.lr.ph.preheader ], [ %.4, %57 ]
  %38 = getelementptr inbounds nuw i8, ptr %8, i64 %indvars.iv
  %39 = load i8, ptr %38, align 1, !tbaa !20
  %40 = zext i8 %39 to i64
  %41 = getelementptr inbounds nuw i16, ptr %6, i64 %40
  %42 = load i16, ptr %41, align 2, !tbaa !18
  %.not56 = icmp eq i16 %42, 0
  br i1 %.not56, label %55, label %43

43:                                               ; preds = %.lr.ph
  %44 = sext i16 %42 to i32
  %45 = add nsw i32 %44, 64
  %46 = icmp ult i32 %45, 128
  br i1 %46, label %47, label %54

47:                                               ; preds = %43
  %48 = shl nsw i32 %.059, 7
  %49 = or disjoint i32 %45, %48
  %50 = sext i32 %49 to i64
  %51 = getelementptr inbounds i8, ptr %.048, i64 %50
  %52 = load i8, ptr %51, align 1, !tbaa !20
  %53 = zext i8 %52 to i32
  br label %54

54:                                               ; preds = %43, %47
  %.pn = phi i32 [ %53, %47 ], [ %10, %43 ]
  %.3 = add nsw i32 %.pn, %.258
  br label %57

55:                                               ; preds = %.lr.ph
  %56 = add nsw i32 %.059, 1
  br label %57

57:                                               ; preds = %55, %54
  %.4 = phi i32 [ %.3, %54 ], [ %.258, %55 ]
  %.1 = phi i32 [ 0, %54 ], [ %56, %55 ]
  %indvars.iv.next = add nuw nsw i64 %indvars.iv, 1
  %58 = trunc nuw nsw i64 %indvars.iv.next to i32
  store i32 %58, ptr %7, align 4, !tbaa !29
  %exitcond.not = icmp eq i64 %indvars.iv.next, %wide.trip.count
  br i1 %exitcond.not, label %._crit_edge.loopexit, label %.lr.ph, !llvm.loop !89

._crit_edge.loopexit:                             ; preds = %57
  %59 = shl nsw i32 %.1, 7
  br label %._crit_edge

._crit_edge:                                      ; preds = %.preheader.._crit_edge_crit_edge, %._crit_edge.loopexit
  %.pre-phi = phi i64 [ %.pre, %.preheader.._crit_edge_crit_edge ], [ %wide.trip.count, %._crit_edge.loopexit ]
  %.2.lcssa = phi i32 [ %.049, %.preheader.._crit_edge_crit_edge ], [ %.4, %._crit_edge.loopexit ]
  %.0.lcssa = phi i32 [ 0, %.preheader.._crit_edge_crit_edge ], [ %59, %._crit_edge.loopexit ]
  %60 = getelementptr inbounds nuw i8, ptr %8, i64 %.pre-phi
  %61 = load i8, ptr %60, align 1, !tbaa !20
  %62 = zext i8 %61 to i32
  store i32 %62, ptr %7, align 4, !tbaa !29
  %63 = zext i8 %61 to i64
  %64 = getelementptr inbounds nuw i16, ptr %6, i64 %63
  %65 = load i16, ptr %64, align 2, !tbaa !18
  %66 = sext i16 %65 to i32
  %67 = add nsw i32 %66, 64
  %68 = icmp ult i32 %67, 128
  br i1 %68, label %69, label %76

69:                                               ; preds = %._crit_edge
  %70 = or disjoint i32 %67, %.0.lcssa
  %71 = sext i32 %70 to i64
  %72 = getelementptr inbounds i8, ptr %.047, i64 %71
  %73 = load i8, ptr %72, align 1, !tbaa !20
  %74 = zext i8 %73 to i32
  %75 = add nsw i32 %.2.lcssa, %74
  br label %78

76:                                               ; preds = %._crit_edge
  %77 = add nsw i32 %.2.lcssa, %10
  br label %78

78:                                               ; preds = %69, %76, %35
  %.150 = phi i32 [ %75, %69 ], [ %77, %76 ], [ %.049, %35 ]
  call void @llvm.lifetime.end.p0(i64 4, ptr nonnull %7) #12
  call void @llvm.lifetime.end.p0(i64 128, ptr nonnull %6) #12
  ret i32 %.150
}